; Function Attrs: nounwind uwtable
define ptr @l_Lean_Meta_visitLet_visit___rarg___lambda__3(ptr noundef %0, ptr noundef %1, ptr noundef %2, ptr noundef %3, ptr noundef %4, ptr noundef %5, ptr noundef %6, ptr noundef %7, ptr noundef %8, ptr readnone captures(none) %9) local_unnamed_addr #0 {
  %11 = ptrtoint ptr %0 to i64
  %12 = and i64 %11, 1
  %.not = icmp eq i64 %12, 0
  br i1 %.not, label %13, label %lean_inc.exit24

13:                                               ; preds = %10
  %.val.i = load i32, ptr %0, align 4, !tbaa !4
  %14 = icmp sgt i32 %.val.i, 0
  br i1 %14, label %15, label %17, !prof !13

15:                                               ; preds = %13
  %16 = add nuw i32 %.val.i, 1
  store i32 %16, ptr %0, align 4, !tbaa !4
  br label %lean_inc.exit24

17:                                               ; preds = %13
  %.not.i = icmp eq i32 %.val.i, 0
  br i1 %.not.i, label %lean_inc.exit24, label %18

18:                                               ; preds = %17
  tail call void @lean_inc_ref_cold(ptr noundef nonnull %0) #4
  br label %lean_inc.exit24

lean_inc.exit24:                                  ; preds = %18, %17, %15, %10
  %19 = ptrtoint ptr %1 to i64
  %20 = and i64 %19, 1
  %.not28 = icmp eq i64 %20, 0
  br i1 %.not28, label %21, label %lean_inc.exit

21:                                               ; preds = %lean_inc.exit24
  %.val.i25 = load i32, ptr %1, align 4, !tbaa !4
  %22 = icmp sgt i32 %.val.i25, 0
  br i1 %22, label %23, label %25, !prof !13

23:                                               ; preds = %21
  %24 = add nuw i32 %.val.i25, 1
  store i32 %24, ptr %1, align 4, !tbaa !4
  br label %lean_inc.exit

25:                                               ; preds = %21
  %.not.i26 = icmp eq i32 %.val.i25, 0
  br i1 %.not.i26, label %lean_inc.exit, label %26

26:                                               ; preds = %25
  tail call void @lean_inc_ref_cold(ptr noundef nonnull %1) #4
  br label %lean_inc.exit

lean_inc.exit:                                    ; preds = %26, %25, %23, %lean_inc.exit24
  %27 = tail call ptr @lean_apply_1(ptr noundef %0, ptr noundef %1) #4
  tail call void @lean_inc_heartbeat() #4
  %28 = tail call noalias ptr @mi_malloc_small(i64 noundef 88) #4
  %29 = icmp eq ptr %28, null
  br i1 %29, label %30, label %lean_alloc_closure.exit

30:                                               ; preds = %lean_inc.exit
  tail call void @lean_internal_panic_out_of_memory() #5
  unreachable

lean_alloc_closure.exit:                          ; preds = %lean_inc.exit
  %31 = getelementptr inbounds nuw i8, ptr %28, i64 4
  store i32 1, ptr %28, align 4, !tbaa !4
  store i32 -184549288, ptr %31, align 4
  %32 = getelementptr inbounds nuw i8, ptr %28, i64 8
  store ptr @l_Lean_Meta_visitLet_visit___rarg___lambda__2___boxed, ptr %32, align 8, !tbaa !9
  %33 = getelementptr inbounds nuw i8, ptr %28, i64 16
  store i16 9, ptr %33, align 8, !tbaa !11
  %34 = getelementptr inbounds nuw i8, ptr %28, i64 18
  store i16 8, ptr %34, align 2, !tbaa !11
  %35 = getelementptr inbounds nuw i8, ptr %28, i64 24
  store ptr %2, ptr %35, align 8, !tbaa !9
  %36 = getelementptr inbounds nuw i8, ptr %28, i64 32
  store ptr %3, ptr %36, align 8, !tbaa !9
  %37 = getelementptr inbounds nuw i8, ptr %28, i64 40
  store ptr %4, ptr %37, align 8, !tbaa !9
  %38 = getelementptr inbounds nuw i8, ptr %28, i64 48
  store ptr %0, ptr %38, align 8, !tbaa !9
  %39 = getelementptr inbounds nuw i8, ptr %28, i64 56
  store ptr %5, ptr %39, align 8, !tbaa !9
  %40 = getelementptr inbounds nuw i8, ptr %28, i64 64
  store ptr %6, ptr %40, align 8, !tbaa !9
  %41 = getelementptr inbounds nuw i8, ptr %28, i64 72
  store ptr %7, ptr %41, align 8, !tbaa !9
  %42 = getelementptr inbounds nuw i8, ptr %28, i64 80
  store ptr %1, ptr %42, align 8, !tbaa !9
  %43 = tail call ptr @lean_apply_4(ptr noundef %8, ptr noundef nonnull inttoptr (i64 1 to ptr), ptr noundef nonnull inttoptr (i64 1 to ptr), ptr noundef %27, ptr noundef nonnull %28) #4
  ret ptr %43
}